target datalayout = "e-m:e-p270:32:32-p271:32:32-p272:64:64-i64:64-i128:128-f80:128-n8:16:32:64-S128"
target triple = "x86_64-pc-linux-gnu"

%class.Compilation = type { ptr, i32, i32, ptr, ptr, ptr, ptr, ptr, i32, ptr, i32, ptr, ptr, i8, i8, i8, i8, i8, i8, i8, i8, i8, ptr, ptr, i8, ptr, %class.ExceptionHandlerTable, %class.ImplicitExceptionTable, ptr, %class.CodeOffsets, %class.CodeBuffer, i8, i32, i32, ptr }
%class.ExceptionHandlerTable = type <{ ptr, i32, i32, %class.ReallocMark, [7 x i8] }>
%class.ReallocMark = type { i8 }
%class.ImplicitExceptionTable = type <{ i32, i32, ptr, %class.ReallocMark, [7 x i8] }>
%class.CodeOffsets = type { [8 x i32] }
%class.CodeBuffer = type { ptr, %class.CodeSection, %class.CodeSection, %class.CodeSection, ptr, ptr, ptr, i32, ptr, %class.OopRecorder, ptr, ptr, ptr, ptr, ptr, i8, i32 }
%class.CodeSection = type { ptr, ptr, ptr, ptr, ptr, ptr, ptr, ptr, i8, i8, i32, i8, ptr }
%class.OopRecorder = type { %class.ValueRecorder, %class.ValueRecorder.0, ptr }
%class.ValueRecorder = type <{ ptr, ptr, ptr, ptr, i8, [7 x i8] }>
%class.ValueRecorder.0 = type <{ ptr, ptr, ptr, ptr, i8, [7 x i8] }>
%class.LIR_Assembler = type { ptr, ptr, ptr, ptr, ptr, ptr, i32, i32, %class.Label }
%class.Label = type <{ i32, [4 x i32], i32, ptr, i8, [7 x i8] }>

@.str.7 = private unnamed_addr constant [18 x i8] c"CodeCache is full\00", align 1
@PrintCompilation = external global i8, align 1
@tty = external global ptr, align 8
@.str.11 = private unnamed_addr constant [24 x i8] c"compilation bailout: %s\00", align 1
@CaptureBailoutInformation = external global i8, align 1

; Function Attrs: mustprogress nounwind uwtable
define linkonce_odr hidden noundef ptr @_ZN11Compilation7offsetsEv(ptr noundef nonnull align 8 dereferenceable(704) %0) #1 comdat align 2 {
  %2 = alloca ptr, align 8
  store ptr %0, ptr %2, align 8
  %3 = load ptr, ptr %2, align 8
  %4 = getelementptr inbounds %class.Compilation, ptr %3, i32 0, i32 29
  ret ptr %4
}

; Function Attrs: mustprogress nounwind uwtable
define linkonce_odr hidden noundef zeroext i1 @_ZNK11Compilation25has_method_handle_invokesEv(ptr noundef nonnull align 8 dereferenceable(704) %0) #1 comdat align 2 {
  %2 = alloca ptr, align 8
  store ptr %0, ptr %2, align 8
  %3 = load ptr, ptr %2, align 8
  %4 = getelementptr inbounds %class.Compilation, ptr %3, i32 0, i32 18
  %5 = load i8, ptr %4, align 1
  %6 = trunc i8 %5 to i1
  ret i1 %6
}

; Function Attrs: mustprogress nounwind uwtable
define linkonce_odr hidden void @_ZN11CodeOffsets9set_valueENS_7EntriesEi(ptr noundef nonnull align 4 dereferenceable(32) %0, i32 noundef %1, i32 noundef %2) #1 comdat align 2 {
  %4 = alloca ptr, align 8
  %5 = alloca i32, align 4
  %6 = alloca i32, align 4
  store ptr %0, ptr %4, align 8
  store i32 %1, ptr %5, align 4
  store i32 %2, ptr %6, align 4
  %7 = load ptr, ptr %4, align 8
  %8 = load i32, ptr %6, align 4
  %9 = getelementptr inbounds %class.CodeOffsets, ptr %7, i32 0, i32 0
  %10 = load i32, ptr %5, align 4
  %11 = zext i32 %10 to i64
  %12 = getelementptr inbounds [8 x i32], ptr %9, i64 0, i64 %11
  store i32 %8, ptr %12, align 4
  ret void
}

; Function Attrs: mustprogress nounwind uwtable
define linkonce_odr hidden noundef ptr @_ZNK11Compilation19exception_info_listEv(ptr noundef nonnull align 8 dereferenceable(704) %0) #1 comdat align 2 {
  %2 = alloca ptr, align 8
  store ptr %0, ptr %2, align 8
  %3 = load ptr, ptr %2, align 8
  %4 = getelementptr inbounds %class.Compilation, ptr %3, i32 0, i32 25
  %5 = load ptr, ptr %4, align 8
  ret ptr %5
}

; Function Attrs: mustprogress nounwind uwtable
define hidden void @_ZN11Compilation7bailoutEPKc(ptr noundef nonnull align 8 dereferenceable(704) %0, ptr noundef %1) #1 align 2 {
  %3 = alloca i64, align 8
  %4 = alloca i8, align 1
  %5 = alloca i64, align 8
  %6 = alloca ptr, align 8
  %7 = alloca ptr, align 8
  store ptr %0, ptr %6, align 8
  store ptr %1, ptr %7, align 8
  %8 = load ptr, ptr %6, align 8
  %9 = call noundef zeroext i1 @_ZNK11Compilation10bailed_outEv(ptr noundef nonnull align 8 dereferenceable(704) %8)
  br i1 %9, label %29, label %10

10:                                               ; preds = %2
  %11 = load i8, ptr @PrintCompilation, align 1
  %12 = trunc i8 %11 to i1
  br i1 %12, label %13, label %16

13:                                               ; preds = %10
  %14 = load ptr, ptr @tty, align 8
  %15 = load ptr, ptr %7, align 8
  call void (ptr, ptr, ...) @_ZN12outputStream8print_crEPKcz(ptr noundef nonnull align 8 dereferenceable(56) %14, ptr noundef @.str.11, ptr noundef %15)
  br label %16

16:                                               ; preds = %13, %10
  %17 = load ptr, ptr %7, align 8
  %18 = getelementptr inbounds %class.Compilation, ptr %8, i32 0, i32 22
  store ptr %17, ptr %18, align 8
  %19 = load i8, ptr @CaptureBailoutInformation, align 1
  %20 = trunc i8 %19 to i1
  br i1 %20, label %21, label %28

21:                                               ; preds = %16
  store i64 56, ptr %5, align 8
  %22 = load i64, ptr %5, align 8
  store i64 %22, ptr %3, align 8
  store i8 7, ptr %4, align 1
  %23 = load i64, ptr %3, align 8
  %24 = load i8, ptr %4, align 1
  %25 = call noundef ptr @_Z12AllocateHeapm8MEMFLAGSN17AllocFailStrategy13AllocFailEnumE(i64 noundef %23, i8 noundef zeroext %24, i32 noundef 0) #6
  %26 = load ptr, ptr %7, align 8
  call void @_ZN22CompilationFailureInfoC1EPKc(ptr noundef nonnull align 8 dereferenceable(52) %25, ptr noundef %26)
  %27 = getelementptr inbounds %class.Compilation, ptr %8, i32 0, i32 23
  store ptr %25, ptr %27, align 8
  br label %28

28:                                               ; preds = %21, %16
  br label %29

29:                                               ; preds = %28, %2
  ret void
}

; Function Attrs: mustprogress nounwind uwtable
define linkonce_odr hidden noundef ptr @_ZN11Compilation4codeEv(ptr noundef nonnull align 8 dereferenceable(704) %0) #1 comdat align 2 {
  %2 = alloca ptr, align 8
  store ptr %0, ptr %2, align 8
  %3 = load ptr, ptr %2, align 8
  %4 = getelementptr inbounds %class.Compilation, ptr %3, i32 0, i32 30
  ret ptr %4
}

; Function Attrs: mustprogress nounwind uwtable
define linkonce_odr hidden noundef ptr @_ZNK13LIR_Assembler7offsetsEv(ptr noundef nonnull align 8 dereferenceable(96) %0) #1 comdat align 2 {
  %2 = alloca ptr, align 8
  store ptr %0, ptr %2, align 8
  %3 = load ptr, ptr %2, align 8
  %4 = getelementptr inbounds %class.LIR_Assembler, ptr %3, i32 0, i32 2
  %5 = load ptr, ptr %4, align 8
  %6 = call noundef ptr @_ZN11Compilation7offsetsEv(ptr noundef nonnull align 8 dereferenceable(704) %5)
  ret ptr %6
}

; Function Attrs: mustprogress nounwind uwtable
define linkonce_odr hidden noundef zeroext i1 @_ZNK11Compilation10bailed_outEv(ptr noundef nonnull align 8 dereferenceable(704) %0) #1 comdat align 2 {
  %2 = alloca ptr, align 8
  store ptr %0, ptr %2, align 8
  %3 = load ptr, ptr %2, align 8
  %4 = getelementptr inbounds %class.Compilation, ptr %3, i32 0, i32 22
  %5 = load ptr, ptr %4, align 8
  %6 = icmp ne ptr %5, null
  ret i1 %6
}

; Function Attrs: mustprogress nounwind uwtable
define hidden void @_ZN11Compilation16emit_code_epilogEP13LIR_Assembler(ptr noundef nonnull align 8 dereferenceable(704) %0, ptr noundef %1) #1 align 2 {
  %3 = alloca ptr, align 8
  %4 = alloca ptr, align 8
  %5 = alloca ptr, align 8
  store ptr %0, ptr %3, align 8
  store ptr %1, ptr %4, align 8
  %6 = load ptr, ptr %3, align 8
  %7 = call noundef zeroext i1 @_ZNK11Compilation10bailed_outEv(ptr noundef nonnull align 8 dereferenceable(704) %6)
  br i1 %7, label %8, label %9

8:                                                ; preds = %2
  br label %49

9:                                                ; preds = %2
  %10 = load ptr, ptr %4, align 8
  %11 = call noundef ptr @_ZNK13LIR_Assembler7offsetsEv(ptr noundef nonnull align 8 dereferenceable(96) %10)
  store ptr %11, ptr %5, align 8
  %12 = call noundef ptr @_ZN11Compilation4codeEv(ptr noundef nonnull align 8 dereferenceable(704) %6)
  %13 = call noundef zeroext i1 @_ZN10CodeBuffer14finalize_stubsEv(ptr noundef nonnull align 8 dereferenceable(448) %12)
  br i1 %13, label %15, label %14

14:                                               ; preds = %9
  call void @_ZN11Compilation7bailoutEPKc(ptr noundef nonnull align 8 dereferenceable(704) %6, ptr noundef @.str.7)
  br label %49

15:                                               ; preds = %9
  %16 = load ptr, ptr %4, align 8
  call void @_ZN13LIR_Assembler20emit_slow_case_stubsEv(ptr noundef nonnull align 8 dereferenceable(96) %16)
  %17 = call noundef zeroext i1 @_ZNK11Compilation10bailed_outEv(ptr noundef nonnull align 8 dereferenceable(704) %6)
  br i1 %17, label %18, label %19

18:                                               ; preds = %15
  br label %49

19:                                               ; preds = %15
  %20 = load ptr, ptr %4, align 8
  %21 = call noundef ptr @_ZNK11Compilation19exception_info_listEv(ptr noundef nonnull align 8 dereferenceable(704) %6)
  call void @_ZN13LIR_Assembler22emit_exception_entriesEP13GrowableArrayIP13ExceptionInfoE(ptr noundef nonnull align 8 dereferenceable(96) %20, ptr noundef %21)
  %22 = call noundef zeroext i1 @_ZNK11Compilation10bailed_outEv(ptr noundef nonnull align 8 dereferenceable(704) %6)
  br i1 %22, label %23, label %24

23:                                               ; preds = %19
  br label %49

24:                                               ; preds = %19
  %25 = load ptr, ptr %5, align 8
  %26 = load ptr, ptr %4, align 8
  %27 = call noundef i32 @_ZN13LIR_Assembler22emit_exception_handlerEv(ptr noundef nonnull align 8 dereferenceable(96) %26)
  call void @_ZN11CodeOffsets9set_valueENS_7EntriesEi(ptr noundef nonnull align 4 dereferenceable(32) %25, i32 noundef 4, i32 noundef %27)
  %28 = call noundef zeroext i1 @_ZNK11Compilation10bailed_outEv(ptr noundef nonnull align 8 dereferenceable(704) %6)
  br i1 %28, label %29, label %30

29:                                               ; preds = %24
  br label %49

30:                                               ; preds = %24
  %31 = load ptr, ptr %5, align 8
  %32 = load ptr, ptr %4, align 8
  %33 = call noundef i32 @_ZN13LIR_Assembler18emit_deopt_handlerEv(ptr noundef nonnull align 8 dereferenceable(96) %32)
  call void @_ZN11CodeOffsets9set_valueENS_7EntriesEi(ptr noundef nonnull align 4 dereferenceable(32) %31, i32 noundef 5, i32 noundef %33)
  %34 = call noundef zeroext i1 @_ZNK11Compilation10bailed_outEv(ptr noundef nonnull align 8 dereferenceable(704) %6)
  br i1 %34, label %35, label %36

35:                                               ; preds = %30
  br label %49

36:                                               ; preds = %30
  %37 = call noundef zeroext i1 @_ZNK11Compilation25has_method_handle_invokesEv(ptr noundef nonnull align 8 dereferenceable(704) %6)
  br i1 %37, label %38, label %45

38:                                               ; preds = %36
  %39 = load ptr, ptr %5, align 8
  %40 = load ptr, ptr %4, align 8
  %41 = call noundef i32 @_ZN13LIR_Assembler18emit_deopt_handlerEv(ptr noundef nonnull align 8 dereferenceable(96) %40)
  call void @_ZN11CodeOffsets9set_valueENS_7EntriesEi(ptr noundef nonnull align 4 dereferenceable(32) %39, i32 noundef 6, i32 noundef %41)
  %42 = call noundef zeroext i1 @_ZNK11Compilation10bailed_outEv(ptr noundef nonnull align 8 dereferenceable(704) %6)
  br i1 %42, label %43, label %44

43:                                               ; preds = %38
  br label %49

44:                                               ; preds = %38
  br label %45

45:                                               ; preds = %44, %36
  %46 = call noundef ptr @_ZN11Compilation7offsetsEv(ptr noundef nonnull align 8 dereferenceable(704) %6)
  %47 = load ptr, ptr %4, align 8
  %48 = call noundef i32 @_ZN13LIR_Assembler19emit_unwind_handlerEv(ptr noundef nonnull align 8 dereferenceable(96) %47)
  call void @_ZN11CodeOffsets9set_valueENS_7EntriesEi(ptr noundef nonnull align 4 dereferenceable(32) %46, i32 noundef 7, i32 noundef %48)
  br label %49

49:                                               ; preds = %45, %43, %35, %29, %23, %18, %14, %8
  ret void
}