; Function Attrs: mustprogress nounwind uwtable
define hidden void @_ZN11Compilation16emit_code_epilogEP13LIR_Assembler(ptr noundef nonnull align 8 dereferenceable(704) %0, ptr noundef %1) local_unnamed_addr #1 align 2 {
  %3 = getelementptr inbounds i8, ptr %0, i64 112
  %4 = load ptr, ptr %3, align 8
  %.not = icmp eq ptr %4, null
  br i1 %.not, label %5, label %_ZN11Compilation7bailoutEPKc.exit

5:                                                ; preds = %2
  %6 = getelementptr inbounds i8, ptr %1, i64 16
  %7 = load ptr, ptr %6, align 8
  %8 = getelementptr inbounds i8, ptr %0, i64 232
  %9 = tail call noundef zeroext i1 @_ZN10CodeBuffer14finalize_stubsEv(ptr noundef nonnull align 8 dereferenceable(448) %8) #7
  br i1 %9, label %23, label %10

10:                                               ; preds = %5
  %11 = load ptr, ptr %3, align 8
  %.not.i = icmp eq ptr %11, null
  br i1 %.not.i, label %12, label %_ZN11Compilation7bailoutEPKc.exit

12:                                               ; preds = %10
  %13 = load i8, ptr @PrintCompilation, align 1
  %14 = trunc i8 %13 to i1
  br i1 %14, label %15, label %17

15:                                               ; preds = %12
  %16 = load ptr, ptr @tty, align 8
  tail call void (ptr, ptr, ...) @_ZN12outputStream8print_crEPKcz(ptr noundef nonnull align 8 dereferenceable(56) %16, ptr noundef nonnull @.str.11, ptr noundef nonnull @.str.7) #7
  br label %17

17:                                               ; preds = %15, %12
  store ptr @.str.7, ptr %3, align 8
  %18 = load i8, ptr @CaptureBailoutInformation, align 1
  %19 = trunc i8 %18 to i1
  br i1 %19, label %20, label %_ZN11Compilation7bailoutEPKc.exit

20:                                               ; preds = %17
  %21 = tail call noundef ptr @_Z12AllocateHeapm8MEMFLAGSN17AllocFailStrategy13AllocFailEnumE(i64 noundef 56, i8 noundef zeroext 7, i32 noundef 0) #7
  tail call void @_ZN22CompilationFailureInfoC1EPKc(ptr noundef nonnull align 8 dereferenceable(52) %21, ptr noundef nonnull @.str.7) #7
  %22 = getelementptr inbounds i8, ptr %0, i64 120
  store ptr %21, ptr %22, align 8
  br label %_ZN11Compilation7bailoutEPKc.exit

23:                                               ; preds = %5
  tail call void @_ZN13LIR_Assembler20emit_slow_case_stubsEv(ptr noundef nonnull align 8 dereferenceable(96) %1) #7
  %24 = load ptr, ptr %3, align 8
  %.not11 = icmp eq ptr %24, null
  br i1 %.not11, label %25, label %_ZN11Compilation7bailoutEPKc.exit

25:                                               ; preds = %23
  %26 = getelementptr inbounds i8, ptr %0, i64 136
  %27 = load ptr, ptr %26, align 8
  tail call void @_ZN13LIR_Assembler22emit_exception_entriesEP13GrowableArrayIP13ExceptionInfoE(ptr noundef nonnull align 8 dereferenceable(96) %1, ptr noundef %27) #7
  %28 = load ptr, ptr %3, align 8
  %.not12 = icmp eq ptr %28, null
  br i1 %.not12, label %29, label %_ZN11Compilation7bailoutEPKc.exit

29:                                               ; preds = %25
  %30 = tail call noundef i32 @_ZN13LIR_Assembler22emit_exception_handlerEv(ptr noundef nonnull align 8 dereferenceable(96) %1) #7
  %31 = getelementptr inbounds i8, ptr %7, i64 216
  store i32 %30, ptr %31, align 4
  %32 = load ptr, ptr %3, align 8
  %.not13 = icmp eq ptr %32, null
  br i1 %.not13, label %33, label %_ZN11Compilation7bailoutEPKc.exit

33:                                               ; preds = %29
  %34 = tail call noundef i32 @_ZN13LIR_Assembler18emit_deopt_handlerEv(ptr noundef nonnull align 8 dereferenceable(96) %1) #7
  %35 = getelementptr inbounds i8, ptr %7, i64 220
  store i32 %34, ptr %35, align 4
  %36 = load ptr, ptr %3, align 8
  %.not14 = icmp eq ptr %36, null
  br i1 %.not14, label %37, label %_ZN11Compilation7bailoutEPKc.exit

37:                                               ; preds = %33
  %38 = getelementptr inbounds i8, ptr %0, i64 101
  %39 = load i8, ptr %38, align 1
  %40 = trunc i8 %39 to i1
  br i1 %40, label %41, label %45

41:                                               ; preds = %37
  %42 = tail call noundef i32 @_ZN13LIR_Assembler18emit_deopt_handlerEv(ptr noundef nonnull align 8 dereferenceable(96) %1) #7
  %43 = getelementptr inbounds i8, ptr %7, i64 224
  store i32 %42, ptr %43, align 4
  %44 = load ptr, ptr %3, align 8
  %.not15 = icmp eq ptr %44, null
  br i1 %.not15, label %45, label %_ZN11Compilation7bailoutEPKc.exit

45:                                               ; preds = %41, %37
  %46 = tail call noundef i32 @_ZN13LIR_Assembler19emit_unwind_handlerEv(ptr noundef nonnull align 8 dereferenceable(96) %1) #7
  %47 = getelementptr inbounds i8, ptr %0, i64 228
  store i32 %46, ptr %47, align 4
  br label %_ZN11Compilation7bailoutEPKc.exit

_ZN11Compilation7bailoutEPKc.exit:                ; preds = %20, %17, %10, %41, %33, %29, %25, %23, %2, %45
  ret void
}